target datalayout = "e-m:e-p270:32:32-p271:32:32-p272:64:64-i64:64-i128:128-f80:128-n8:16:32:64-S128"
target triple = "x86_64-unknown-linux-gnu"

%struct.NetClientState = type { ptr, i32, %union.anon, ptr, ptr, ptr, ptr, [256 x i8], i8, ptr, i32, i8, i32, i32, i8, i8, i8, %union.anon.0 }
%union.anon = type { %struct.QTailQLink }
%struct.QTailQLink = type { ptr, ptr }
%union.anon.0 = type { %struct.QTailQLink }
%struct.NetVhostUserState = type { %struct.NetClientState, %struct.CharBackend, ptr, ptr, i32, i64, i8 }
%struct.CharBackend = type { ptr, ptr, ptr, ptr, ptr, ptr, i32, i32 }

@vhost_user_receive.display_rarp_failure = internal global i32 1, align 4
@stderr = external global ptr, align 8
@.str.12 = private unnamed_addr constant [49 x i8] c"Vhost user backend fails to broadcast fake RARP\0A\00", align 1

; Function Attrs: nounwind sspstrong uwtable
define internal i64 @vhost_user_receive(ptr noundef %nc, ptr noundef %buf, i64 noundef %size) #0 {
entry:
  %nc.addr = alloca ptr, align 8
  %buf.addr = alloca ptr, align 8
  %size.addr = alloca i64, align 8
  %s = alloca ptr, align 8
  %tmp = alloca ptr, align 8
  %__mptr = alloca ptr, align 8
  %tmp1 = alloca ptr, align 8
  %r = alloca i32, align 4
  %mac_addr = alloca [6 x i8], align 1
  store ptr %nc, ptr %nc.addr, align 8
  store ptr %buf, ptr %buf.addr, align 8
  store i64 %size, ptr %size.addr, align 8
  %0 = load i64, ptr %size.addr, align 8
  %cmp = icmp eq i64 %0, 60
  br i1 %cmp, label %if.then, label %if.end7

if.then:                                          ; preds = %entry
  %1 = load ptr, ptr %nc.addr, align 8
  store ptr %1, ptr %__mptr, align 8
  %2 = load ptr, ptr %__mptr, align 8
  %add.ptr = getelementptr i8, ptr %2, i64 0
  store ptr %add.ptr, ptr %tmp1, align 8
  %3 = load ptr, ptr %tmp1, align 8
  store ptr %3, ptr %tmp, align 8
  %4 = load ptr, ptr %tmp, align 8
  store ptr %4, ptr %s, align 8
  %arraydecay = getelementptr inbounds [6 x i8], ptr %mac_addr, i64 0, i64 0
  %5 = load ptr, ptr %buf.addr, align 8
  %arrayidx = getelementptr i8, ptr %5, i64 6
  call void @llvm.memcpy.p0.p0.i64(ptr align 1 %arraydecay, ptr align 1 %arrayidx, i64 6, i1 false)
  %6 = load ptr, ptr %s, align 8
  %vhost_net = getelementptr inbounds %struct.NetVhostUserState, ptr %6, i32 0, i32 3
  %7 = load ptr, ptr %vhost_net, align 8
  %arraydecay2 = getelementptr inbounds [6 x i8], ptr %mac_addr, i64 0, i64 0
  %call = call i32 @vhost_net_notify_migration_done(ptr noundef %7, ptr noundef %arraydecay2)
  store i32 %call, ptr %r, align 4
  %8 = load i32, ptr %r, align 4
  %cmp3 = icmp ne i32 %8, 0
  br i1 %cmp3, label %land.lhs.true, label %if.end

land.lhs.true:                                    ; preds = %if.then
  %9 = load i32, ptr @vhost_user_receive.display_rarp_failure, align 4
  %tobool = icmp ne i32 %9, 0
  br i1 %tobool, label %if.then4, label %if.end

if.then4:                                         ; preds = %land.lhs.true
  %10 = load ptr, ptr @stderr, align 8
  %call5 = call i32 (ptr, ptr, ...) @fprintf(ptr noundef %10, ptr noundef @.str.12)
  %11 = load ptr, ptr @stderr, align 8
  %call6 = call i32 @fflush(ptr noundef %11)
  store i32 0, ptr @vhost_user_receive.display_rarp_failure, align 4
  br label %if.end

if.end:                                           ; preds = %if.then4, %land.lhs.true, %if.then
  br label %if.end7

if.end7:                                          ; preds = %if.end, %entry
  %12 = load i64, ptr %size.addr, align 8
  ret i64 %12
}