; Function Attrs: nounwind sspstrong uwtable
define internal noundef i64 @vhost_user_receive(ptr noundef readonly captures(none) %nc, ptr noundef readonly captures(none) %buf, i64 noundef returned %size) #0 {
entry:
  %mac_addr = alloca [6 x i8], align 1
  %cmp = icmp eq i64 %size, 60
  br i1 %cmp, label %if.then, label %if.end7

if.then:                                          ; preds = %entry
  %arrayidx = getelementptr i8, ptr %buf, i64 6
  call void @llvm.memcpy.p0.p0.i64(ptr noundef nonnull align 1 dereferenceable(6) %mac_addr, ptr noundef nonnull align 1 dereferenceable(6) %arrayidx, i64 6, i1 false)
  %vhost_net = getelementptr inbounds nuw i8, ptr %nc, i64 440
  %0 = load ptr, ptr %vhost_net, align 8
  %call = call i32 @vhost_net_notify_migration_done(ptr noundef %0, ptr noundef nonnull %mac_addr) #10
  %cmp3 = icmp eq i32 %call, 0
  %.b = load i1, ptr @vhost_user_receive.display_rarp_failure, align 4
  %or.cond.not = select i1 %cmp3, i1 true, i1 %.b
  br i1 %or.cond.not, label %if.end7, label %if.then4

if.then4:                                         ; preds = %if.then
  %1 = load ptr, ptr @stderr, align 8
  %2 = call i64 @fwrite(ptr nonnull @.str.12, i64 48, i64 1, ptr %1) #12
  %3 = load ptr, ptr @stderr, align 8
  %call6 = call i32 @fflush(ptr noundef %3)
  store i1 true, ptr @vhost_user_receive.display_rarp_failure, align 4
  br label %if.end7

if.end7:                                          ; preds = %if.then, %if.then4, %entry
  ret i64 %size
}